; Function Attrs: null_pointer_is_valid sspstrong uwtable
define internal void @extcap_free_toolbar_value(ptr noundef %0) #0 {
  %2 = icmp eq ptr %0, null
  br i1 %2, label %8, label %3

3:                                                ; preds = %1
  %4 = getelementptr inbounds nuw i8, ptr %0, i64 8
  %5 = load ptr, ptr %4, align 8
  tail call void @g_free(ptr noundef %5)
  %6 = getelementptr inbounds nuw i8, ptr %0, i64 16
  %7 = load ptr, ptr %6, align 8
  tail call void @g_free(ptr noundef %7)
  tail call void @g_free(ptr noundef nonnull %0)
  br label %8

8:                                                ; preds = %1, %3
  ret void
}